; Function Attrs: mustprogress nounwind uwtable
define dso_local void @_ZN4node9inspector19InspectorIoDelegate12GetTargetUrlERKNSt7__cxx1112basic_stringIcSt11char_traitsIcESaIcEEE(ptr noalias sret(%"class.std::__cxx11::basic_string") align 8 %agg.result, ptr noundef nonnull align 8 dereferenceable(192) %this, ptr nocapture nonnull readnone align 8 %id) unnamed_addr #3 align 2 {
entry:
  %ref.tmp.i = alloca %"class.std::allocator", align 1
  %ref.tmp1.i = alloca %"class.std::allocator", align 1
  %script_path_ = getelementptr inbounds i8, ptr %this, i64 128
  call void @llvm.lifetime.start.p0(i64 1, ptr nonnull %ref.tmp.i)
  call void @llvm.lifetime.start.p0(i64 1, ptr nonnull %ref.tmp1.i)
  call void @_ZNKSt7__cxx1112basic_stringIcSt11char_traitsIcESaIcEE13get_allocatorEv(ptr nonnull sret(%"class.std::allocator") align 1 %ref.tmp1.i, ptr noundef nonnull align 8 dereferenceable(32) %script_path_) #18, !noalias !29
  call void @_ZNSaIcEC1ERKS_(ptr noundef nonnull align 1 dereferenceable(1) %ref.tmp.i, ptr noundef nonnull align 1 dereferenceable(1) %ref.tmp1.i) #18, !noalias !29
  call void @_ZNSt7__cxx1112basic_stringIcSt11char_traitsIcESaIcEEC1ERKS3_(ptr noundef nonnull align 8 dereferenceable(32) %agg.result, ptr noundef nonnull align 1 dereferenceable(1) %ref.tmp.i) #18
  call void @_ZNSaIcED1Ev(ptr noundef nonnull align 1 dereferenceable(1) %ref.tmp.i) #18
  call void @_ZNSaIcED1Ev(ptr noundef nonnull align 1 dereferenceable(1) %ref.tmp1.i) #18
  %call2.i = call noundef i64 @_ZNKSt7__cxx1112basic_stringIcSt11char_traitsIcESaIcEE4sizeEv(ptr noundef nonnull align 8 dereferenceable(32) %script_path_) #18
  %add.i = add i64 %call2.i, 7
  call void @_ZNSt7__cxx1112basic_stringIcSt11char_traitsIcESaIcEE7reserveEm(ptr noundef nonnull align 8 dereferenceable(32) %agg.result, i64 noundef %add.i) #18
  %call3.i = call noundef nonnull align 8 dereferenceable(32) ptr @_ZNSt7__cxx1112basic_stringIcSt11char_traitsIcESaIcEE6appendEPKcm(ptr noundef nonnull align 8 dereferenceable(32) %agg.result, ptr noundef nonnull @.str.9, i64 noundef 7) #18
  %call4.i = call noundef nonnull align 8 dereferenceable(32) ptr @_ZNSt7__cxx1112basic_stringIcSt11char_traitsIcESaIcEE6appendERKS4_(ptr noundef nonnull align 8 dereferenceable(32) %agg.result, ptr noundef nonnull align 8 dereferenceable(32) %script_path_) #18
  call void @llvm.lifetime.end.p0(i64 1, ptr nonnull %ref.tmp.i)
  call void @llvm.lifetime.end.p0(i64 1, ptr nonnull %ref.tmp1.i)
  ret void
}